target datalayout = "e-m:e-p270:32:32-p271:32:32-p272:64:64-i64:64-i128:128-f80:128-n8:16:32:64-S128"
target triple = "x86_64-pc-linux-gnu"

%struct.GtkRequisition = type { i32, i32 }
%struct._GtkWidget = type { %struct.GtkObject, i16, i8, i8, ptr, ptr, %struct.GtkRequisition, %struct.GtkAllocation, ptr, ptr }
%struct.GtkObject = type { %struct.GObject, i32 }
%struct.GObject = type { %struct.GTypeInstance, i32, ptr }
%struct.GTypeInstance = type { ptr }
%struct.GtkAllocation = type { i32, i32, i32, i32 }

@fp_gtk_paint_flat_box = internal global ptr null, align 8
@gtk2_white_pixmap = internal global ptr null, align 8
@gtk2_black_pixmap = internal global ptr null, align 8
@gtk2_widget = internal global ptr null, align 8

; Function Attrs: nounwind uwtable
define internal void @gtk2_paint_flat_box(i32 noundef %0, i32 noundef %1, i32 noundef %2, ptr noundef %3, i32 noundef %4, i32 noundef %5, i32 noundef %6, i32 noundef %7, i32 noundef %8) #0 {
  %10 = alloca i32, align 4
  %11 = alloca i32, align 4
  %12 = alloca i32, align 4
  %13 = alloca ptr, align 8
  %14 = alloca i32, align 4
  %15 = alloca i32, align 4
  %16 = alloca i32, align 4
  %17 = alloca i32, align 4
  %18 = alloca i32, align 4
  store i32 %0, ptr %10, align 4
  store i32 %1, ptr %11, align 4
  store i32 %2, ptr %12, align 4
  store ptr %3, ptr %13, align 8
  store i32 %4, ptr %14, align 4
  store i32 %5, ptr %15, align 4
  store i32 %6, ptr %16, align 4
  store i32 %7, ptr %17, align 4
  store i32 %8, ptr %18, align 4
  %19 = load i32, ptr %10, align 4
  %20 = call ptr @gtk2_get_widget(i32 noundef %19)
  store ptr %20, ptr @gtk2_widget, align 8
  %21 = load i32, ptr %18, align 4
  %22 = icmp ne i32 %21, 0
  br i1 %22, label %23, label %28

23:                                               ; preds = %9
  %24 = load ptr, ptr @gtk2_widget, align 8
  %25 = getelementptr inbounds %struct.GtkObject, ptr %24, i32 0, i32 1
  %26 = load i32, ptr %25, align 8
  %27 = or i32 %26, 4096
  store i32 %27, ptr %25, align 8
  br label %33

28:                                               ; preds = %9
  %29 = load ptr, ptr @gtk2_widget, align 8
  %30 = getelementptr inbounds %struct.GtkObject, ptr %29, i32 0, i32 1
  %31 = load i32, ptr %30, align 8
  %32 = and i32 %31, -4097
  store i32 %32, ptr %30, align 8
  br label %33

33:                                               ; preds = %28, %23
  %34 = load ptr, ptr @fp_gtk_paint_flat_box, align 8
  %35 = load ptr, ptr @gtk2_widget, align 8
  %36 = getelementptr inbounds %struct._GtkWidget, ptr %35, i32 0, i32 5
  %37 = load ptr, ptr %36, align 8
  %38 = load ptr, ptr @gtk2_white_pixmap, align 8
  %39 = load i32, ptr %11, align 4
  %40 = load i32, ptr %12, align 4
  %41 = load ptr, ptr @gtk2_widget, align 8
  %42 = load ptr, ptr %13, align 8
  %43 = load i32, ptr %14, align 4
  %44 = load i32, ptr %15, align 4
  %45 = load i32, ptr %16, align 4
  %46 = load i32, ptr %17, align 4
  call void %34(ptr noundef %37, ptr noundef %38, i32 noundef %39, i32 noundef %40, ptr noundef null, ptr noundef %41, ptr noundef %42, i32 noundef %43, i32 noundef %44, i32 noundef %45, i32 noundef %46)
  %47 = load ptr, ptr @fp_gtk_paint_flat_box, align 8
  %48 = load ptr, ptr @gtk2_widget, align 8
  %49 = getelementptr inbounds %struct._GtkWidget, ptr %48, i32 0, i32 5
  %50 = load ptr, ptr %49, align 8
  %51 = load ptr, ptr @gtk2_black_pixmap, align 8
  %52 = load i32, ptr %11, align 4
  %53 = load i32, ptr %12, align 4
  %54 = load ptr, ptr @gtk2_widget, align 8
  %55 = load ptr, ptr %13, align 8
  %56 = load i32, ptr %14, align 4
  %57 = load i32, ptr %15, align 4
  %58 = load i32, ptr %16, align 4
  %59 = load i32, ptr %17, align 4
  call void %47(ptr noundef %50, ptr noundef %51, i32 noundef %52, i32 noundef %53, ptr noundef null, ptr noundef %54, ptr noundef %55, i32 noundef %56, i32 noundef %57, i32 noundef %58, i32 noundef %59)
  ret void
}