; Function Attrs: nounwind uwtable
define internal void @gtk2_paint_flat_box(i32 noundef %0, i32 noundef %1, i32 noundef %2, ptr noundef %3, i32 noundef %4, i32 noundef %5, i32 noundef %6, i32 noundef %7, i32 noundef %8) #0 {
  %10 = tail call fastcc ptr @gtk2_get_widget(i32 noundef %0)
  store ptr %10, ptr @gtk2_widget, align 8
  %.not = icmp eq i32 %8, 0
  %11 = getelementptr inbounds i8, ptr %10, i64 24
  %12 = load i32, ptr %11, align 8
  %13 = and i32 %12, -4097
  %masksel = select i1 %.not, i32 0, i32 4096
  %.sink = or disjoint i32 %13, %masksel
  store i32 %.sink, ptr %11, align 8
  %14 = load ptr, ptr @fp_gtk_paint_flat_box, align 8
  %15 = getelementptr inbounds i8, ptr %10, i64 48
  %16 = load ptr, ptr %15, align 8
  %17 = load ptr, ptr @gtk2_white_pixmap, align 8
  tail call void %14(ptr noundef %16, ptr noundef %17, i32 noundef %1, i32 noundef %2, ptr noundef null, ptr noundef nonnull %10, ptr noundef %3, i32 noundef %4, i32 noundef %5, i32 noundef %6, i32 noundef %7) #18
  %18 = load ptr, ptr @fp_gtk_paint_flat_box, align 8
  %19 = load ptr, ptr @gtk2_widget, align 8
  %20 = getelementptr inbounds i8, ptr %19, i64 48
  %21 = load ptr, ptr %20, align 8
  %22 = load ptr, ptr @gtk2_black_pixmap, align 8
  tail call void %18(ptr noundef %21, ptr noundef %22, i32 noundef %1, i32 noundef %2, ptr noundef null, ptr noundef %19, ptr noundef %3, i32 noundef %4, i32 noundef %5, i32 noundef %6, i32 noundef %7) #18
  ret void
}